; ModuleID = '9/894.c'
source_filename = "9/894.c"
target datalayout = "e-m:e-p270:32:32-p271:32:32-p272:64:64-i64:64-f80:128-n8:16:32:64-S128"
target triple = "x86_64-pc-linux-gnu"

%struct.point = type { [10 x i8], i32 }

@.str = private unnamed_addr constant [3 x i8] c"%d\00", align 1
@.str.1 = private unnamed_addr constant [6 x i8] c"%s %d\00", align 1
@.str.2 = private unnamed_addr constant [4 x i8] c"%s\0A\00", align 1

; Function Attrs: noinline nounwind uwtable
define dso_local i32 @main() #0 {
  %1 = alloca i32, align 4
  %2 = alloca i32, align 4
  %3 = alloca i32, align 4
  %4 = alloca i32, align 4
  %5 = alloca [100 x %struct.point], align 16
  %6 = alloca [100 x %struct.point], align 16
  %7 = alloca %struct.point, align 4
  store i32 0, i32* %1, align 4
  %8 = call i32 (i8*, ...) @__isoc99_scanf(i8* getelementptr inbounds ([3 x i8], [3 x i8]* @.str, i64 0, i64 0), i32* %2)
  store i32 0, i32* %3, align 4
  br label %9

9:                                                ; preds = %23, %0
  %10 = load i32, i32* %3, align 4
  %11 = load i32, i32* %2, align 4
  %12 = icmp slt i32 %10, %11
  br i1 %12, label %13, label %26

13:                                               ; preds = %9
  %14 = load i32, i32* %3, align 4
  %15 = sext i32 %14 to i64
  %16 = getelementptr inbounds [100 x %struct.point], [100 x %struct.point]* %5, i64 0, i64 %15
  %17 = getelementptr inbounds %struct.point, %struct.point* %16, i32 0, i32 0
  %18 = load i32, i32* %3, align 4
  %19 = sext i32 %18 to i64
  %20 = getelementptr inbounds [100 x %struct.point], [100 x %struct.point]* %5, i64 0, i64 %19
  %21 = getelementptr inbounds %struct.point, %struct.point* %20, i32 0, i32 1
  %22 = call i32 (i8*, ...) @__isoc99_scanf(i8* getelementptr inbounds ([6 x i8], [6 x i8]* @.str.1, i64 0, i64 0), [10 x i8]* %17, i32* %21)
  br label %23

23:                                               ; preds = %13
  %24 = load i32, i32* %3, align 4
  %25 = add nsw i32 %24, 1
  store i32 %25, i32* %3, align 4
  br label %9

26:                                               ; preds = %9
  %27 = load i32, i32* %2, align 4
  %28 = sub nsw i32 %27, 1
  store i32 %28, i32* %3, align 4
  br label %29

29:                                               ; preds = %84, %26
  %30 = load i32, i32* %3, align 4
  %31 = icmp sge i32 %30, 0
  br i1 %31, label %32, label %87

32:                                               ; preds = %29
  store i32 0, i32* %4, align 4
  br label %33

33:                                               ; preds = %80, %32
  %34 = load i32, i32* %4, align 4
  %35 = load i32, i32* %3, align 4
  %36 = icmp slt i32 %34, %35
  br i1 %36, label %37, label %83

37:                                               ; preds = %33
  %38 = load i32, i32* %4, align 4
  %39 = add nsw i32 %38, 1
  %40 = sext i32 %39 to i64
  %41 = getelementptr inbounds [100 x %struct.point], [100 x %struct.point]* %5, i64 0, i64 %40
  %42 = getelementptr inbounds %struct.point, %struct.point* %41, i32 0, i32 1
  %43 = load i32, i32* %42, align 4
  %44 = icmp sge i32 %43, 60
  br i1 %44, label %45, label %79

45:                                               ; preds = %37
  %46 = load i32, i32* %4, align 4
  %47 = add nsw i32 %46, 1
  %48 = sext i32 %47 to i64
  %49 = getelementptr inbounds [100 x %struct.point], [100 x %struct.point]* %5, i64 0, i64 %48
  %50 = getelementptr inbounds %struct.point, %struct.point* %49, i32 0, i32 1
  %51 = load i32, i32* %50, align 4
  %52 = load i32, i32* %4, align 4
  %53 = sext i32 %52 to i64
  %54 = getelementptr inbounds [100 x %struct.point], [100 x %struct.point]* %5, i64 0, i64 %53
  %55 = getelementptr inbounds %struct.point, %struct.point* %54, i32 0, i32 1
  %56 = load i32, i32* %55, align 4
  %57 = icmp sgt i32 %51, %56
  br i1 %57, label %58, label %79

58:                                               ; preds = %45
  %59 = load i32, i32* %4, align 4
  %60 = add nsw i32 %59, 1
  %61 = sext i32 %60 to i64
  %62 = getelementptr inbounds [100 x %struct.point], [100 x %struct.point]* %5, i64 0, i64 %61
  %63 = bitcast %struct.point* %7 to i8*
  %64 = bitcast %struct.point* %62 to i8*
  call void @llvm.memcpy.p0i8.p0i8.i64(i8* align 4 %63, i8* align 16 %64, i64 16, i1 false)
  %65 = load i32, i32* %4, align 4
  %66 = add nsw i32 %65, 1
  %67 = sext i32 %66 to i64
  %68 = getelementptr inbounds [100 x %struct.point], [100 x %struct.point]* %5, i64 0, i64 %67
  %69 = load i32, i32* %4, align 4
  %70 = sext i32 %69 to i64
  %71 = getelementptr inbounds [100 x %struct.point], [100 x %struct.point]* %5, i64 0, i64 %70
  %72 = bitcast %struct.point* %68 to i8*
  %73 = bitcast %struct.point* %71 to i8*
  call void @llvm.memcpy.p0i8.p0i8.i64(i8* align 16 %72, i8* align 16 %73, i64 16, i1 false)
  %74 = load i32, i32* %4, align 4
  %75 = sext i32 %74 to i64
  %76 = getelementptr inbounds [100 x %struct.point], [100 x %struct.point]* %5, i64 0, i64 %75
  %77 = bitcast %struct.point* %76 to i8*
  %78 = bitcast %struct.point* %7 to i8*
  call void @llvm.memcpy.p0i8.p0i8.i64(i8* align 16 %77, i8* align 4 %78, i64 16, i1 false)
  br label %79

79:                                               ; preds = %58, %45, %37
  br label %80

80:                                               ; preds = %79
  %81 = load i32, i32* %4, align 4
  %82 = add nsw i32 %81, 1
  store i32 %82, i32* %4, align 4
  br label %33

83:                                               ; preds = %33
  br label %84

84:                                               ; preds = %83
  %85 = load i32, i32* %3, align 4
  %86 = add nsw i32 %85, -1
  store i32 %86, i32* %3, align 4
  br label %29

87:                                               ; preds = %29
  store i32 0, i32* %3, align 4
  br label %88

88:                                               ; preds = %99, %87
  %89 = load i32, i32* %3, align 4
  %90 = load i32, i32* %2, align 4
  %91 = icmp slt i32 %89, %90
  br i1 %91, label %92, label %102

92:                                               ; preds = %88
  %93 = load i32, i32* %3, align 4
  %94 = sext i32 %93 to i64
  %95 = getelementptr inbounds [100 x %struct.point], [100 x %struct.point]* %5, i64 0, i64 %94
  %96 = getelementptr inbounds %struct.point, %struct.point* %95, i32 0, i32 0
  %97 = getelementptr inbounds [10 x i8], [10 x i8]* %96, i64 0, i64 0
  %98 = call i32 (i8*, ...) @printf(i8* getelementptr inbounds ([4 x i8], [4 x i8]* @.str.2, i64 0, i64 0), i8* %97)
  br label %99

99:                                               ; preds = %92
  %100 = load i32, i32* %3, align 4
  %101 = add nsw i32 %100, 1
  store i32 %101, i32* %3, align 4
  br label %88

102:                                              ; preds = %88
  ret i32 0
}

declare dso_local i32 @__isoc99_scanf(i8*, ...) #1

; Function Attrs: argmemonly nounwind willreturn
declare void @llvm.memcpy.p0i8.p0i8.i64(i8* noalias nocapture writeonly, i8* noalias nocapture readonly, i64, i1 immarg) #2

declare dso_local i32 @printf(i8*, ...) #1


!llvm.module.flags = !{!0}
!llvm.ident = !{!1}

!0 = !{i32 1, !"wchar_size", i32 4}
!1 = !{!"clang version 10.0.0-4ubuntu1 "}
